target datalayout = "e-m:e-p270:32:32-p271:32:32-p272:64:64-i64:64-i128:128-f80:128-n8:16:32:64-S128"
target triple = "x86_64-pc-linux-gnu"

%struct.AVFilterContext = type { ptr, ptr, ptr, ptr, ptr, i32, ptr, ptr, i32, ptr, ptr, i32, i32, ptr, ptr, ptr, ptr, i32, ptr, i32, i32 }
%struct.ShowSpatialContext = type { ptr, i32, i32, %struct.AVRational, [2 x ptr], [2 x ptr], [2 x ptr], ptr, [2 x ptr], i32, i32, i32, i32, i32, ptr, i64 }
%struct.AVRational = type { i32, i32 }

; Function Attrs: cold nounwind optsize uwtable
define internal void @uninit(ptr noundef %0) #0 {
  %2 = alloca ptr, align 8
  %3 = alloca ptr, align 8
  %4 = alloca i32, align 4
  %5 = alloca i32, align 4
  store ptr %0, ptr %2, align 8, !tbaa !4
  call void @llvm.lifetime.start.p0(i64 8, ptr %3) #12
  %6 = load ptr, ptr %2, align 8, !tbaa !4
  %7 = getelementptr inbounds nuw %struct.AVFilterContext, ptr %6, i32 0, i32 9
  %8 = load ptr, ptr %7, align 8, !tbaa !9
  store ptr %8, ptr %3, align 8, !tbaa !22
  call void @llvm.lifetime.start.p0(i64 4, ptr %4) #12
  store i32 0, ptr %4, align 4, !tbaa !24
  br label %9

9:                                                ; preds = %19, %1
  %10 = load i32, ptr %4, align 4, !tbaa !24
  %11 = icmp slt i32 %10, 2
  br i1 %11, label %13, label %12

12:                                               ; preds = %9
  call void @llvm.lifetime.end.p0(i64 4, ptr %4) #12
  br label %22

13:                                               ; preds = %9
  %14 = load ptr, ptr %3, align 8, !tbaa !22
  %15 = getelementptr inbounds nuw %struct.ShowSpatialContext, ptr %14, i32 0, i32 4
  %16 = load i32, ptr %4, align 4, !tbaa !24
  %17 = sext i32 %16 to i64
  %18 = getelementptr inbounds [2 x ptr], ptr %15, i64 0, i64 %17
  call void @av_tx_uninit(ptr noundef %18)
  br label %19

19:                                               ; preds = %13
  %20 = load i32, ptr %4, align 4, !tbaa !24
  %21 = add nsw i32 %20, 1
  store i32 %21, ptr %4, align 4, !tbaa !24
  br label %9, !llvm.loop !25

22:                                               ; preds = %12
  call void @llvm.lifetime.start.p0(i64 4, ptr %5) #12
  store i32 0, ptr %5, align 4, !tbaa !24
  br label %23

23:                                               ; preds = %38, %22
  %24 = load i32, ptr %5, align 4, !tbaa !24
  %25 = icmp slt i32 %24, 2
  br i1 %25, label %27, label %26

26:                                               ; preds = %23
  call void @llvm.lifetime.end.p0(i64 4, ptr %5) #12
  br label %41

27:                                               ; preds = %23
  %28 = load ptr, ptr %3, align 8, !tbaa !22
  %29 = getelementptr inbounds nuw %struct.ShowSpatialContext, ptr %28, i32 0, i32 5
  %30 = load i32, ptr %5, align 4, !tbaa !24
  %31 = sext i32 %30 to i64
  %32 = getelementptr inbounds [2 x ptr], ptr %29, i64 0, i64 %31
  call void @av_freep(ptr noundef %32)
  %33 = load ptr, ptr %3, align 8, !tbaa !22
  %34 = getelementptr inbounds nuw %struct.ShowSpatialContext, ptr %33, i32 0, i32 6
  %35 = load i32, ptr %5, align 4, !tbaa !24
  %36 = sext i32 %35 to i64
  %37 = getelementptr inbounds [2 x ptr], ptr %34, i64 0, i64 %36
  call void @av_freep(ptr noundef %37)
  br label %38

38:                                               ; preds = %27
  %39 = load i32, ptr %5, align 4, !tbaa !24
  %40 = add nsw i32 %39, 1
  store i32 %40, ptr %5, align 4, !tbaa !24
  br label %23, !llvm.loop !27

41:                                               ; preds = %26
  %42 = load ptr, ptr %3, align 8, !tbaa !22
  %43 = getelementptr inbounds nuw %struct.ShowSpatialContext, ptr %42, i32 0, i32 7
  call void @av_freep(ptr noundef %43)
  %44 = load ptr, ptr %3, align 8, !tbaa !22
  %45 = getelementptr inbounds nuw %struct.ShowSpatialContext, ptr %44, i32 0, i32 14
  %46 = load ptr, ptr %45, align 8, !tbaa !28
  call void @av_audio_fifo_free(ptr noundef %46)
  call void @llvm.lifetime.end.p0(i64 8, ptr %3) #12
  ret void
}