; Function Attrs: cold nounwind optsize uwtable
define internal void @uninit(ptr noundef readonly captures(none) %0) #0 {
.preheader.critedge:
  %1 = getelementptr inbounds nuw i8, ptr %0, i64 72
  %2 = load ptr, ptr %1, align 8, !tbaa !4
  %3 = getelementptr inbounds nuw i8, ptr %2, i64 24
  tail call void @av_tx_uninit(ptr noundef nonnull %3) #10
  %4 = getelementptr inbounds nuw i8, ptr %2, i64 32
  tail call void @av_tx_uninit(ptr noundef nonnull %4) #10
  %5 = getelementptr inbounds nuw i8, ptr %2, i64 40
  %6 = getelementptr inbounds nuw i8, ptr %2, i64 56
  tail call void @av_freep(ptr noundef nonnull %5) #10
  tail call void @av_freep(ptr noundef nonnull %6) #10
  %7 = getelementptr inbounds nuw i8, ptr %2, i64 48
  tail call void @av_freep(ptr noundef nonnull %7) #10
  %8 = getelementptr inbounds nuw i8, ptr %2, i64 64
  tail call void @av_freep(ptr noundef nonnull %8) #10
  %9 = getelementptr inbounds nuw i8, ptr %2, i64 72
  tail call void @av_freep(ptr noundef nonnull %9) #10
  %10 = getelementptr inbounds nuw i8, ptr %2, i64 120
  %11 = load ptr, ptr %10, align 8, !tbaa !20
  tail call void @av_audio_fifo_free(ptr noundef %11) #10
  ret void
}